target datalayout = "e-m:e-p270:32:32-p271:32:32-p272:64:64-i64:64-i128:128-f80:128-n8:16:32:64-S128"
target triple = "x86_64-pc-linux-gnu"

%"struct.Luau::Compile::Constant" = type { i32, i32, %union.anon.209 }
%union.anon.209 = type { double, [8 x i8] }

; Function Attrs: mustprogress nounwind uwtable
define dso_local void @_ZN4Luau24setCompileConstantVectorEPPvffff(ptr noundef %0, float noundef %1, float noundef %2, float noundef %3, float noundef %4) #2 {
  %6 = alloca ptr, align 8
  %7 = alloca float, align 4
  %8 = alloca float, align 4
  %9 = alloca float, align 4
  %10 = alloca float, align 4
  %11 = alloca ptr, align 8
  store ptr %0, ptr %6, align 8, !tbaa !316
  store float %1, ptr %7, align 4, !tbaa !324
  store float %2, ptr %8, align 4, !tbaa !324
  store float %3, ptr %9, align 4, !tbaa !324
  store float %4, ptr %10, align 4, !tbaa !324
  call void @llvm.lifetime.start.p0(i64 8, ptr %11) #22
  %12 = load ptr, ptr %6, align 8, !tbaa !316
  store ptr %12, ptr %11, align 8, !tbaa !317
  %13 = load ptr, ptr %11, align 8, !tbaa !317
  %14 = getelementptr inbounds nuw %"struct.Luau::Compile::Constant", ptr %13, i32 0, i32 0
  store i32 4, ptr %14, align 8, !tbaa !319
  %15 = load float, ptr %7, align 4, !tbaa !324
  %16 = load ptr, ptr %11, align 8, !tbaa !317
  %17 = getelementptr inbounds nuw %"struct.Luau::Compile::Constant", ptr %16, i32 0, i32 2
  %18 = getelementptr inbounds [4 x float], ptr %17, i64 0, i64 0
  store float %15, ptr %18, align 8, !tbaa !46
  %19 = load float, ptr %8, align 4, !tbaa !324
  %20 = load ptr, ptr %11, align 8, !tbaa !317
  %21 = getelementptr inbounds nuw %"struct.Luau::Compile::Constant", ptr %20, i32 0, i32 2
  %22 = getelementptr inbounds [4 x float], ptr %21, i64 0, i64 1
  store float %19, ptr %22, align 4, !tbaa !46
  %23 = load float, ptr %9, align 4, !tbaa !324
  %24 = load ptr, ptr %11, align 8, !tbaa !317
  %25 = getelementptr inbounds nuw %"struct.Luau::Compile::Constant", ptr %24, i32 0, i32 2
  %26 = getelementptr inbounds [4 x float], ptr %25, i64 0, i64 2
  store float %23, ptr %26, align 8, !tbaa !46
  %27 = load float, ptr %10, align 4, !tbaa !324
  %28 = load ptr, ptr %11, align 8, !tbaa !317
  %29 = getelementptr inbounds nuw %"struct.Luau::Compile::Constant", ptr %28, i32 0, i32 2
  %30 = getelementptr inbounds [4 x float], ptr %29, i64 0, i64 3
  store float %27, ptr %30, align 4, !tbaa !46
  call void @llvm.lifetime.end.p0(i64 8, ptr %11) #22
  ret void
}