; Function Attrs: mustprogress nofree norecurse nosync nounwind willreturn memory(argmem: write) uwtable
define dso_local void @_ZN4Luau24setCompileConstantVectorEPPvffff(ptr noundef writeonly captures(none) initializes((0, 4), (8, 24)) %0, float noundef %1, float noundef %2, float noundef %3, float noundef %4) local_unnamed_addr #18 {
  store i32 4, ptr %0, align 8, !tbaa !421
  %6 = getelementptr inbounds nuw i8, ptr %0, i64 8
  store float %1, ptr %6, align 8, !tbaa !20
  %7 = getelementptr inbounds nuw i8, ptr %0, i64 12
  store float %2, ptr %7, align 4, !tbaa !20
  %8 = getelementptr inbounds nuw i8, ptr %0, i64 16
  store float %3, ptr %8, align 8, !tbaa !20
  %9 = getelementptr inbounds nuw i8, ptr %0, i64 20
  store float %4, ptr %9, align 4, !tbaa !20
  ret void
}